target datalayout = "e-m:e-p270:32:32-p271:32:32-p272:64:64-i64:64-i128:128-f80:128-n8:16:32:64-S128"
target triple = "x86_64-pc-linux-gnu"

%struct.KINMemRec = type { double, ptr, ptr, double, double, i32, i32, i64, i64, i64, i64, i32, i32, i32, i32, i32, i32, i32, i32, i32, double, double, double, double, double, double, double, double, double, i32, double, i64, i64, i64, i64, i64, i64, i64, ptr, ptr, ptr, ptr, ptr, ptr, ptr, ptr, ptr, ptr, ptr, ptr, ptr, ptr, ptr, ptr, ptr, ptr, i64, i32, i32, i64, i64, i64, i64, ptr, ptr, ptr, ptr, i32, ptr, double, double, double, double, double, i32, double, double, double, i32, ptr, ptr, ptr, ptr, ptr, ptr }

@.str = private unnamed_addr constant [7 x i8] c"KINSOL\00", align 1
@.str.2 = private unnamed_addr constant [27 x i8] c"kinsol_mem = NULL illegal.\00", align 1
@.str.38 = private unnamed_addr constant [20 x i8] c"KINSetScaledStepTol\00", align 1
@.str.39 = private unnamed_addr constant [23 x i8] c"scsteptol < 0 illegal.\00", align 1

; Function Attrs: nounwind uwtable
define i32 @KINSetScaledStepTol(ptr noundef %0, double noundef %1) #0 {
  %3 = alloca i32, align 4
  %4 = alloca ptr, align 8
  %5 = alloca double, align 8
  %6 = alloca ptr, align 8
  %7 = alloca double, align 8
  store ptr %0, ptr %4, align 8
  store double %1, ptr %5, align 8
  %8 = load ptr, ptr %4, align 8
  %9 = icmp eq ptr %8, null
  br i1 %9, label %10, label %11

10:                                               ; preds = %2
  call void (ptr, i32, ptr, ptr, ptr, ...) @KINProcessError(ptr noundef null, i32 noundef -1, ptr noundef @.str, ptr noundef @.str.38, ptr noundef @.str.2)
  store i32 -1, ptr %3, align 4
  br label %32

11:                                               ; preds = %2
  %12 = load ptr, ptr %4, align 8
  store ptr %12, ptr %6, align 8
  %13 = load double, ptr %5, align 8
  %14 = fcmp olt double %13, 0.000000e+00
  br i1 %14, label %15, label %16

15:                                               ; preds = %11
  call void (ptr, i32, ptr, ptr, ptr, ...) @KINProcessError(ptr noundef null, i32 noundef -2, ptr noundef @.str, ptr noundef @.str.38, ptr noundef @.str.39)
  store i32 -2, ptr %3, align 4
  br label %32

16:                                               ; preds = %11
  %17 = load double, ptr %5, align 8
  %18 = fcmp oeq double %17, 0.000000e+00
  br i1 %18, label %19, label %27

19:                                               ; preds = %16
  %20 = load ptr, ptr %6, align 8
  %21 = getelementptr inbounds %struct.KINMemRec, ptr %20, i32 0, i32 0
  %22 = load double, ptr %21, align 8
  store double %22, ptr %7, align 8
  %23 = load double, ptr %7, align 8
  %24 = call double @SUNRpowerR(double noundef %23, double noundef 0x3FE5555555555556)
  %25 = load ptr, ptr %6, align 8
  %26 = getelementptr inbounds %struct.KINMemRec, ptr %25, i32 0, i32 4
  store double %24, ptr %26, align 8
  br label %31

27:                                               ; preds = %16
  %28 = load double, ptr %5, align 8
  %29 = load ptr, ptr %6, align 8
  %30 = getelementptr inbounds %struct.KINMemRec, ptr %29, i32 0, i32 4
  store double %28, ptr %30, align 8
  br label %31

31:                                               ; preds = %27, %19
  store i32 0, ptr %3, align 4
  br label %32

32:                                               ; preds = %31, %15, %10
  %33 = load i32, ptr %3, align 4
  ret i32 %33
}